; Function Attrs: mustprogress nofree norecurse nosync nounwind willreturn memory(argmem: readwrite, inaccessiblemem: readwrite) uwtable
define internal fastcc void @_ZL25EmitUncompressedMetaBlockPKhS0_mPmPh(ptr noundef %0, ptr noundef %1, i64 noundef %2, ptr noundef captures(none) initializes((0, 8)) %3, ptr noundef captures(none) %4) unnamed_addr #2 {
  %6 = ptrtoint ptr %1 to i64
  %7 = ptrtoint ptr %0 to i64
  %8 = sub i64 %6, %7
  %9 = trunc i64 %2 to i8
  %10 = and i8 %9, 7
  %notmask.i = shl nsw i8 -1, %10
  %11 = xor i8 %notmask.i, -1
  %12 = lshr i64 %2, 3
  %13 = getelementptr inbounds nuw i8, ptr %4, i64 %12
  %14 = load i8, ptr %13, align 1, !tbaa !7
  %15 = and i8 %14, %11
  store i8 %15, ptr %13, align 1, !tbaa !7
  store i64 %2, ptr %3, align 8, !tbaa !3
  tail call void @llvm.experimental.noalias.scope.decl(metadata !1276)
  tail call void @llvm.experimental.noalias.scope.decl(metadata !1279)
  %16 = load i8, ptr %13, align 1, !tbaa !7, !alias.scope !1279, !noalias !1276
  %17 = zext i8 %16 to i64
  store i64 %17, ptr %13, align 1, !noalias !1276
  %18 = add i64 %2, 1
  store i64 %18, ptr %3, align 8, !tbaa !3, !alias.scope !1276, !noalias !1279
  %19 = icmp ult i64 %8, 65537
  %20 = icmp ult i64 %8, 1048577
  %spec.select.i = select i1 %20, i64 5, i64 6
  %.0.i = select i1 %19, i64 4, i64 %spec.select.i
  %21 = add nsw i64 %.0.i, -4
  tail call void @llvm.experimental.noalias.scope.decl(metadata !1281)
  tail call void @llvm.experimental.noalias.scope.decl(metadata !1284)
  %22 = lshr i64 %18, 3
  %23 = getelementptr inbounds nuw i8, ptr %4, i64 %22
  %24 = load i8, ptr %23, align 1, !tbaa !7, !alias.scope !1284, !noalias !1281
  %25 = zext i8 %24 to i64
  %26 = and i64 %18, 7
  %27 = shl nuw nsw i64 %21, %26
  %28 = or i64 %27, %25
  store i64 %28, ptr %23, align 1, !noalias !1281
  %29 = add i64 %2, 3
  store i64 %29, ptr %3, align 8, !tbaa !3, !alias.scope !1281, !noalias !1284
  %30 = shl nuw nsw i64 %.0.i, 2
  %31 = add i64 %8, -1
  tail call void @llvm.experimental.noalias.scope.decl(metadata !1286)
  tail call void @llvm.experimental.noalias.scope.decl(metadata !1289)
  %32 = lshr i64 %29, 3
  %33 = getelementptr inbounds nuw i8, ptr %4, i64 %32
  %34 = load i8, ptr %33, align 1, !tbaa !7, !alias.scope !1289, !noalias !1286
  %35 = zext i8 %34 to i64
  %36 = and i64 %29, 7
  %37 = shl i64 %31, %36
  %38 = or i64 %37, %35
  store i64 %38, ptr %33, align 1, !noalias !1286
  %39 = add i64 %30, %29
  store i64 %39, ptr %3, align 8, !tbaa !3, !alias.scope !1286, !noalias !1289
  %40 = lshr i64 %39, 3
  %41 = getelementptr inbounds nuw i8, ptr %4, i64 %40
  %42 = load i8, ptr %41, align 1, !tbaa !7, !alias.scope !1291, !noalias !1294
  %43 = zext i8 %42 to i64
  %44 = and i64 %39, 7
  %45 = shl nuw nsw i64 1, %44
  %46 = or i64 %45, %43
  store i64 %46, ptr %41, align 1, !noalias !1294
  %47 = add i64 %39, 8
  %48 = and i64 %47, 4294967288
  store i64 %48, ptr %3, align 8, !tbaa !3
  %49 = lshr exact i64 %48, 3
  %50 = getelementptr inbounds nuw i8, ptr %4, i64 %49
  tail call void @llvm.memcpy.p0.p0.i64(ptr align 1 %50, ptr align 1 %0, i64 %8, i1 false)
  %51 = shl i64 %8, 3
  %52 = load i64, ptr %3, align 8, !tbaa !3
  %53 = add i64 %52, %51
  store i64 %53, ptr %3, align 8, !tbaa !3
  %54 = lshr i64 %53, 3
  %55 = getelementptr inbounds nuw i8, ptr %4, i64 %54
  store i8 0, ptr %55, align 1, !tbaa !7
  ret void
}